target datalayout = "e-m:e-p270:32:32-p271:32:32-p272:64:64-i64:64-i128:128-f80:128-n8:16:32:64-S128"
target triple = "x86_64-pc-linux-gnu"

%struct.wtap = type { ptr, ptr, i8, i32, i32, ptr, ptr, ptr, i32, ptr, ptr, ptr, ptr, ptr, ptr, ptr, ptr, ptr, ptr, i32, i32, ptr, ptr, ptr, ptr }

@dbs_etherwatch_rec_magic = internal constant [5 x i8] c"From ", align 1

; Function Attrs: null_pointer_is_valid sspstrong uwtable
define internal i64 @dbs_etherwatch_seek_next_packet(ptr noundef %0, ptr noundef %1, ptr noundef %2) #0 {
  %4 = alloca i64, align 8
  %5 = alloca ptr, align 8
  %6 = alloca ptr, align 8
  %7 = alloca ptr, align 8
  %8 = alloca i32, align 4
  %9 = alloca i32, align 4
  %10 = alloca i64, align 8
  %11 = alloca i32, align 4
  store ptr %0, ptr %5, align 8
  store ptr %1, ptr %6, align 8
  store ptr %2, ptr %7, align 8
  call void @llvm.lifetime.start.p0(i64 4, ptr %8) #11
  call void @llvm.lifetime.start.p0(i64 4, ptr %9) #11
  store i32 0, ptr %9, align 4
  call void @llvm.lifetime.start.p0(i64 8, ptr %10) #11
  br label %12

12:                                               ; preds = %51, %3
  %13 = load ptr, ptr %5, align 8
  %14 = getelementptr inbounds nuw %struct.wtap, ptr %13, i32 0, i32 0
  %15 = load ptr, ptr %14, align 8
  %16 = call i32 @file_getc(ptr noundef %15)
  store i32 %16, ptr %8, align 4
  %17 = icmp ne i32 %16, -1
  br i1 %17, label %18, label %52

18:                                               ; preds = %12
  %19 = load i32, ptr %8, align 4
  %20 = load i32, ptr %9, align 4
  %21 = zext i32 %20 to i64
  %22 = getelementptr [5 x i8], ptr @dbs_etherwatch_rec_magic, i64 0, i64 %21
  %23 = load i8, ptr %22, align 1
  %24 = sext i8 %23 to i32
  %25 = icmp eq i32 %19, %24
  br i1 %25, label %26, label %50

26:                                               ; preds = %18
  %27 = load i32, ptr %9, align 4
  %28 = add i32 %27, 1
  store i32 %28, ptr %9, align 4
  %29 = load i32, ptr %9, align 4
  %30 = zext i32 %29 to i64
  %31 = icmp uge i64 %30, 5
  br i1 %31, label %32, label %49

32:                                               ; preds = %26
  %33 = load ptr, ptr %5, align 8
  %34 = getelementptr inbounds nuw %struct.wtap, ptr %33, i32 0, i32 0
  %35 = load ptr, ptr %34, align 8
  %36 = call i64 @file_tell(ptr noundef %35)
  store i64 %36, ptr %10, align 8
  %37 = load i64, ptr %10, align 8
  %38 = icmp eq i64 %37, -1
  br i1 %38, label %39, label %46

39:                                               ; preds = %32
  %40 = load ptr, ptr %5, align 8
  %41 = getelementptr inbounds nuw %struct.wtap, ptr %40, i32 0, i32 0
  %42 = load ptr, ptr %41, align 8
  %43 = load ptr, ptr %7, align 8
  %44 = call i32 @file_error(ptr noundef %42, ptr noundef %43)
  %45 = load ptr, ptr %6, align 8
  store i32 %44, ptr %45, align 4
  store i64 -1, ptr %4, align 8
  store i32 1, ptr %11, align 4
  br label %59

46:                                               ; preds = %32
  %47 = load i64, ptr %10, align 8
  %48 = add i64 %47, 1
  store i64 %48, ptr %4, align 8
  store i32 1, ptr %11, align 4
  br label %59

49:                                               ; preds = %26
  br label %51

50:                                               ; preds = %18
  store i32 0, ptr %9, align 4
  br label %51

51:                                               ; preds = %50, %49
  br label %12, !llvm.loop !9

52:                                               ; preds = %12
  %53 = load ptr, ptr %5, align 8
  %54 = getelementptr inbounds nuw %struct.wtap, ptr %53, i32 0, i32 0
  %55 = load ptr, ptr %54, align 8
  %56 = load ptr, ptr %7, align 8
  %57 = call i32 @file_error(ptr noundef %55, ptr noundef %56)
  %58 = load ptr, ptr %6, align 8
  store i32 %57, ptr %58, align 4
  store i64 -1, ptr %4, align 8
  store i32 1, ptr %11, align 4
  br label %59

59:                                               ; preds = %52, %46, %39
  call void @llvm.lifetime.end.p0(i64 8, ptr %10) #11
  call void @llvm.lifetime.end.p0(i64 4, ptr %9) #11
  call void @llvm.lifetime.end.p0(i64 4, ptr %8) #11
  %60 = load i64, ptr %4, align 8
  ret i64 %60
}

; Function Attrs: null_pointer_is_valid sspstrong uwtable
define internal zeroext i1 @dbs_etherwatch_read(ptr noundef %0, ptr noundef %1, ptr noundef %2, ptr noundef %3, ptr noundef %4) #0 {
  %6 = alloca i1, align 1
  %7 = alloca ptr, align 8
  %8 = alloca ptr, align 8
  %9 = alloca ptr, align 8
  %10 = alloca ptr, align 8
  %11 = alloca ptr, align 8
  %12 = alloca i64, align 8
  %13 = alloca i32, align 4
  store ptr %0, ptr %7, align 8
  store ptr %1, ptr %8, align 8
  store ptr %2, ptr %9, align 8
  store ptr %3, ptr %10, align 8
  store ptr %4, ptr %11, align 8
  call void @llvm.lifetime.start.p0(i64 8, ptr %12) #11
  %14 = load ptr, ptr %7, align 8
  %15 = load ptr, ptr %9, align 8
  %16 = load ptr, ptr %10, align 8
  %17 = call i64 @dbs_etherwatch_seek_next_packet(ptr noundef %14, ptr noundef %15, ptr noundef %16)
  store i64 %17, ptr %12, align 8
  %18 = load i64, ptr %12, align 8
  %19 = icmp slt i64 %18, 1
  br i1 %19, label %20, label %21

20:                                               ; preds = %5
  store i1 false, ptr %6, align 1
  store i32 1, ptr %13, align 4
  br label %31

21:                                               ; preds = %5
  %22 = load i64, ptr %12, align 8
  %23 = load ptr, ptr %11, align 8
  store i64 %22, ptr %23, align 8
  %24 = load ptr, ptr %7, align 8
  %25 = getelementptr inbounds nuw %struct.wtap, ptr %24, i32 0, i32 0
  %26 = load ptr, ptr %25, align 8
  %27 = load ptr, ptr %8, align 8
  %28 = load ptr, ptr %9, align 8
  %29 = load ptr, ptr %10, align 8
  %30 = call zeroext i1 @parse_dbs_etherwatch_packet(ptr noundef %26, ptr noundef %27, ptr noundef %28, ptr noundef %29)
  store i1 %30, ptr %6, align 1
  store i32 1, ptr %13, align 4
  br label %31

31:                                               ; preds = %21, %20
  call void @llvm.lifetime.end.p0(i64 8, ptr %12) #11
  %32 = load i1, ptr %6, align 1
  ret i1 %32
}