; Function Attrs: null_pointer_is_valid sspstrong uwtable
define internal noundef zeroext i1 @dbs_etherwatch_read(ptr noundef readonly captures(none) %0, ptr noundef %1, ptr noundef writeonly captures(none) %2, ptr noundef %3, ptr noundef writeonly captures(none) %4) #0 {
  %6 = load ptr, ptr %0, align 8
  %7 = tail call i32 @file_getc(ptr noundef %6)
  %.not17.i = icmp eq i32 %7, -1
  br i1 %.not17.i, label %._crit_edge.i, label %.lr.ph.i

.lr.ph.i:                                         ; preds = %5, %24
  %8 = phi i32 [ %26, %24 ], [ %7, %5 ]
  %.01418.i = phi i32 [ %.1.i, %24 ], [ 0, %5 ]
  %9 = zext nneg i32 %.01418.i to i64
  %10 = getelementptr [5 x i8], ptr @dbs_etherwatch_rec_magic, i64 0, i64 %9
  %11 = load i8, ptr %10, align 1
  %12 = sext i8 %11 to i32
  %13 = icmp eq i32 %8, %12
  br i1 %13, label %14, label %24

14:                                               ; preds = %.lr.ph.i
  %15 = add nuw nsw i32 %.01418.i, 1
  %16 = icmp ugt i32 %.01418.i, 3
  br i1 %16, label %17, label %24

17:                                               ; preds = %14
  %18 = load ptr, ptr %0, align 8
  %19 = tail call i64 @file_tell(ptr noundef %18)
  %20 = icmp eq i64 %19, -1
  br i1 %20, label %21, label %dbs_etherwatch_seek_next_packet.exit

21:                                               ; preds = %17
  %22 = load ptr, ptr %0, align 8
  %23 = tail call i32 @file_error(ptr noundef %22, ptr noundef %3)
  store i32 %23, ptr %2, align 4
  br label %dbs_etherwatch_seek_next_packet.exit.thread

24:                                               ; preds = %14, %.lr.ph.i
  %.1.i = phi i32 [ %15, %14 ], [ 0, %.lr.ph.i ]
  %25 = load ptr, ptr %0, align 8
  %26 = tail call i32 @file_getc(ptr noundef %25)
  %.not.i = icmp eq i32 %26, -1
  br i1 %.not.i, label %._crit_edge.i, label %.lr.ph.i, !llvm.loop !9

._crit_edge.i:                                    ; preds = %24, %5
  %27 = load ptr, ptr %0, align 8
  %28 = tail call i32 @file_error(ptr noundef %27, ptr noundef %3)
  store i32 %28, ptr %2, align 4
  br label %dbs_etherwatch_seek_next_packet.exit.thread

dbs_etherwatch_seek_next_packet.exit:             ; preds = %17
  %29 = icmp ugt i64 %19, 9223372036854775806
  br i1 %29, label %dbs_etherwatch_seek_next_packet.exit.thread, label %30

30:                                               ; preds = %dbs_etherwatch_seek_next_packet.exit
  %31 = add nuw nsw i64 %19, 1
  store i64 %31, ptr %4, align 8
  %32 = load ptr, ptr %0, align 8
  %33 = tail call fastcc zeroext i1 @parse_dbs_etherwatch_packet(ptr noundef %32, ptr noundef %1, ptr noundef %2, ptr noundef %3)
  br label %dbs_etherwatch_seek_next_packet.exit.thread

dbs_etherwatch_seek_next_packet.exit.thread:      ; preds = %._crit_edge.i, %21, %dbs_etherwatch_seek_next_packet.exit, %30
  %.0 = phi i1 [ %33, %30 ], [ false, %dbs_etherwatch_seek_next_packet.exit ], [ false, %21 ], [ false, %._crit_edge.i ]
  ret i1 %.0
}